target datalayout = "e-m:e-p270:32:32-p271:32:32-p272:64:64-i64:64-i128:128-f80:128-n8:16:32:64-S128"
target triple = "x86_64-pc-linux-gnu"

%struct.deparse_namespace = type { ptr, ptr, ptr, ptr, ptr, ptr, ptr, ptr, i8, ptr, ptr, ptr, ptr, ptr, ptr, ptr, ptr, ptr, i32, ptr }
%union.ListCell = type { ptr }
%struct.RangeTblEntry = type { i32, ptr, ptr, i32, i32, i8, i8, i32, i32, ptr, ptr, i8, i32, i32, ptr, ptr, ptr, ptr, ptr, i8, ptr, ptr, ptr, i32, i8, ptr, ptr, ptr, ptr, double, ptr, i8, i8, ptr }
%struct.ForEachState = type { ptr, i32 }
%struct.List = type { i32, i32, i32, ptr, [0 x %union.ListCell] }
%struct.Node = type { i32 }
%struct.FromExpr = type { i32, ptr, ptr }
%struct.JoinExpr = type { i32, i32, i8, ptr, ptr, ptr, ptr, ptr, ptr, i32 }

@.str.2 = private unnamed_addr constant [12 x i8] c"ruleutils.c\00", align 1
@.str.64 = private unnamed_addr constant [27 x i8] c"unrecognized node type: %d\00", align 1
@__func__.has_dangerous_join_using = private unnamed_addr constant [25 x i8] c"has_dangerous_join_using\00", align 1

; Function Attrs: inlinehint nounwind uwtable
define internal ptr @list_nth_cell(ptr noundef %0, i32 noundef %1) #2 {
  %3 = alloca ptr, align 8
  %4 = alloca i32, align 4
  store ptr %0, ptr %3, align 8
  store i32 %1, ptr %4, align 4
  %5 = load ptr, ptr %3, align 8
  %6 = getelementptr inbounds nuw %struct.List, ptr %5, i32 0, i32 3
  %7 = load ptr, ptr %6, align 8
  %8 = load i32, ptr %4, align 4
  %9 = sext i32 %8 to i64
  %10 = getelementptr inbounds %union.ListCell, ptr %7, i64 %9
  ret ptr %10
}

; Function Attrs: inlinehint nounwind uwtable
define internal ptr @list_nth(ptr noundef %0, i32 noundef %1) #2 {
  %3 = alloca ptr, align 8
  %4 = alloca i32, align 4
  store ptr %0, ptr %3, align 8
  store i32 %1, ptr %4, align 4
  %5 = load ptr, ptr %3, align 8
  %6 = load i32, ptr %4, align 4
  %7 = call ptr @list_nth_cell(ptr noundef %5, i32 noundef %6)
  %8 = load ptr, ptr %7, align 8
  ret ptr %8
}

; Function Attrs: nounwind uwtable
define internal zeroext i1 @has_dangerous_join_using(ptr noundef %0, ptr noundef %1) #0 {
  %3 = alloca i1, align 1
  %4 = alloca ptr, align 8
  %5 = alloca ptr, align 8
  %6 = alloca ptr, align 8
  %7 = alloca ptr, align 8
  %8 = alloca %struct.ForEachState, align 8
  %9 = alloca i32, align 4
  %10 = alloca ptr, align 8
  %11 = alloca ptr, align 8
  %12 = alloca i32, align 4
  %13 = alloca ptr, align 8
  store ptr %0, ptr %4, align 8
  store ptr %1, ptr %5, align 8
  %14 = load ptr, ptr %5, align 8
  %15 = getelementptr inbounds nuw %struct.Node, ptr %14, i32 0, i32 0
  %16 = load i32, ptr %15, align 4
  %17 = icmp eq i32 %16, 63
  br i1 %17, label %18, label %19

18:                                               ; preds = %2
  br label %164

19:                                               ; preds = %2
  %20 = load ptr, ptr %5, align 8
  %21 = getelementptr inbounds nuw %struct.Node, ptr %20, i32 0, i32 0
  %22 = load i32, ptr %21, align 4
  %23 = icmp eq i32 %22, 65
  br i1 %23, label %24, label %75

24:                                               ; preds = %19
  call void @llvm.lifetime.start.p0(i64 8, ptr %6) #10
  %25 = load ptr, ptr %5, align 8
  store ptr %25, ptr %6, align 8
  call void @llvm.lifetime.start.p0(i64 8, ptr %7) #10
  call void @llvm.lifetime.start.p0(i64 16, ptr %8) #10
  %26 = getelementptr inbounds nuw %struct.ForEachState, ptr %8, i32 0, i32 0
  %27 = load ptr, ptr %6, align 8
  %28 = getelementptr inbounds nuw %struct.FromExpr, ptr %27, i32 0, i32 1
  %29 = load ptr, ptr %28, align 8
  store ptr %29, ptr %26, align 8
  %30 = getelementptr inbounds nuw %struct.ForEachState, ptr %8, i32 0, i32 1
  store i32 0, ptr %30, align 8
  %31 = getelementptr i8, ptr %8, i64 12
  call void @llvm.memset.p0.i64(ptr align 4 %31, i8 0, i64 4, i1 false)
  br label %32

32:                                               ; preds = %65, %24
  %33 = getelementptr inbounds nuw %struct.ForEachState, ptr %8, i32 0, i32 0
  %34 = load ptr, ptr %33, align 8
  %35 = icmp ne ptr %34, null
  br i1 %35, label %36, label %53

36:                                               ; preds = %32
  %37 = getelementptr inbounds nuw %struct.ForEachState, ptr %8, i32 0, i32 1
  %38 = load i32, ptr %37, align 8
  %39 = getelementptr inbounds nuw %struct.ForEachState, ptr %8, i32 0, i32 0
  %40 = load ptr, ptr %39, align 8
  %41 = getelementptr inbounds nuw %struct.List, ptr %40, i32 0, i32 1
  %42 = load i32, ptr %41, align 4
  %43 = icmp slt i32 %38, %42
  br i1 %43, label %44, label %53

44:                                               ; preds = %36
  %45 = getelementptr inbounds nuw %struct.ForEachState, ptr %8, i32 0, i32 0
  %46 = load ptr, ptr %45, align 8
  %47 = getelementptr inbounds nuw %struct.List, ptr %46, i32 0, i32 3
  %48 = load ptr, ptr %47, align 8
  %49 = getelementptr inbounds nuw %struct.ForEachState, ptr %8, i32 0, i32 1
  %50 = load i32, ptr %49, align 8
  %51 = sext i32 %50 to i64
  %52 = getelementptr inbounds %union.ListCell, ptr %48, i64 %51
  store ptr %52, ptr %7, align 8
  br label %54

53:                                               ; preds = %36, %32
  store ptr null, ptr %7, align 8
  br label %54

54:                                               ; preds = %53, %44
  %55 = phi i32 [ 1, %44 ], [ 0, %53 ]
  %56 = icmp ne i32 %55, 0
  br i1 %56, label %58, label %57

57:                                               ; preds = %54
  store i32 2, ptr %9, align 4
  br label %69

58:                                               ; preds = %54
  %59 = load ptr, ptr %4, align 8
  %60 = load ptr, ptr %7, align 8
  %61 = load ptr, ptr %60, align 8
  %62 = call zeroext i1 @has_dangerous_join_using(ptr noundef %59, ptr noundef %61)
  br i1 %62, label %63, label %64

63:                                               ; preds = %58
  store i1 true, ptr %3, align 1
  store i32 1, ptr %9, align 4
  br label %69

64:                                               ; preds = %58
  br label %65

65:                                               ; preds = %64
  %66 = getelementptr inbounds nuw %struct.ForEachState, ptr %8, i32 0, i32 1
  %67 = load i32, ptr %66, align 8
  %68 = add i32 %67, 1
  store i32 %68, ptr %66, align 8
  br label %32, !llvm.loop !53

69:                                               ; preds = %63, %57
  call void @llvm.lifetime.end.p0(i64 16, ptr %8) #10
  %70 = load i32, ptr %9, align 4
  switch i32 %70, label %72 [
    i32 2, label %71
  ]

71:                                               ; preds = %69
  store i32 0, ptr %9, align 4
  br label %72

72:                                               ; preds = %71, %69
  call void @llvm.lifetime.end.p0(i64 8, ptr %7) #10
  call void @llvm.lifetime.end.p0(i64 8, ptr %6) #10
  %73 = load i32, ptr %9, align 4
  switch i32 %73, label %167 [
    i32 0, label %74
    i32 1, label %165
  ]

74:                                               ; preds = %72
  br label %163

75:                                               ; preds = %19
  %76 = load ptr, ptr %5, align 8
  %77 = getelementptr inbounds nuw %struct.Node, ptr %76, i32 0, i32 0
  %78 = load i32, ptr %77, align 4
  %79 = icmp eq i32 %78, 64
  br i1 %79, label %80, label %149

80:                                               ; preds = %75
  call void @llvm.lifetime.start.p0(i64 8, ptr %10) #10
  %81 = load ptr, ptr %5, align 8
  store ptr %81, ptr %10, align 8
  %82 = load ptr, ptr %10, align 8
  %83 = getelementptr inbounds nuw %struct.JoinExpr, ptr %82, i32 0, i32 8
  %84 = load ptr, ptr %83, align 8
  %85 = icmp eq ptr %84, null
  br i1 %85, label %86, label %131

86:                                               ; preds = %80
  %87 = load ptr, ptr %10, align 8
  %88 = getelementptr inbounds nuw %struct.JoinExpr, ptr %87, i32 0, i32 5
  %89 = load ptr, ptr %88, align 8
  %90 = icmp ne ptr %89, null
  br i1 %90, label %91, label %131

91:                                               ; preds = %86
  call void @llvm.lifetime.start.p0(i64 8, ptr %11) #10
  %92 = load ptr, ptr %4, align 8
  %93 = getelementptr inbounds nuw %struct.deparse_namespace, ptr %92, i32 0, i32 0
  %94 = load ptr, ptr %93, align 8
  %95 = load ptr, ptr %10, align 8
  %96 = getelementptr inbounds nuw %struct.JoinExpr, ptr %95, i32 0, i32 9
  %97 = load i32, ptr %96, align 8
  %98 = sub i32 %97, 1
  %99 = call ptr @list_nth(ptr noundef %94, i32 noundef %98)
  store ptr %99, ptr %11, align 8
  call void @llvm.lifetime.start.p0(i64 4, ptr %12) #10
  store i32 0, ptr %12, align 4
  br label %100

100:                                              ; preds = %122, %91
  %101 = load i32, ptr %12, align 4
  %102 = load ptr, ptr %11, align 8
  %103 = getelementptr inbounds nuw %struct.RangeTblEntry, ptr %102, i32 0, i32 13
  %104 = load i32, ptr %103, align 8
  %105 = icmp slt i32 %101, %104
  br i1 %105, label %107, label %106

106:                                              ; preds = %100
  store i32 5, ptr %9, align 4
  br label %125

107:                                              ; preds = %100
  call void @llvm.lifetime.start.p0(i64 8, ptr %13) #10
  %108 = load ptr, ptr %11, align 8
  %109 = getelementptr inbounds nuw %struct.RangeTblEntry, ptr %108, i32 0, i32 14
  %110 = load ptr, ptr %109, align 8
  %111 = load i32, ptr %12, align 4
  %112 = call ptr @list_nth(ptr noundef %110, i32 noundef %111)
  store ptr %112, ptr %13, align 8
  %113 = load ptr, ptr %13, align 8
  %114 = getelementptr inbounds nuw %struct.Node, ptr %113, i32 0, i32 0
  %115 = load i32, ptr %114, align 4
  %116 = icmp eq i32 %115, 6
  br i1 %116, label %118, label %117

117:                                              ; preds = %107
  store i1 true, ptr %3, align 1
  store i32 1, ptr %9, align 4
  br label %119

118:                                              ; preds = %107
  store i32 0, ptr %9, align 4
  br label %119

119:                                              ; preds = %118, %117
  call void @llvm.lifetime.end.p0(i64 8, ptr %13) #10
  %120 = load i32, ptr %9, align 4
  switch i32 %120, label %125 [
    i32 0, label %121
  ]

121:                                              ; preds = %119
  br label %122

122:                                              ; preds = %121
  %123 = load i32, ptr %12, align 4
  %124 = add i32 %123, 1
  store i32 %124, ptr %12, align 4
  br label %100, !llvm.loop !54

125:                                              ; preds = %119, %106
  call void @llvm.lifetime.end.p0(i64 4, ptr %12) #10
  %126 = load i32, ptr %9, align 4
  switch i32 %126, label %128 [
    i32 5, label %127
  ]

127:                                              ; preds = %125
  store i32 0, ptr %9, align 4
  br label %128

128:                                              ; preds = %127, %125
  call void @llvm.lifetime.end.p0(i64 8, ptr %11) #10
  %129 = load i32, ptr %9, align 4
  switch i32 %129, label %146 [
    i32 0, label %130
  ]

130:                                              ; preds = %128
  br label %131

131:                                              ; preds = %130, %86, %80
  %132 = load ptr, ptr %4, align 8
  %133 = load ptr, ptr %10, align 8
  %134 = getelementptr inbounds nuw %struct.JoinExpr, ptr %133, i32 0, i32 3
  %135 = load ptr, ptr %134, align 8
  %136 = call zeroext i1 @has_dangerous_join_using(ptr noundef %132, ptr noundef %135)
  br i1 %136, label %137, label %138

137:                                              ; preds = %131
  store i1 true, ptr %3, align 1
  store i32 1, ptr %9, align 4
  br label %146

138:                                              ; preds = %131
  %139 = load ptr, ptr %4, align 8
  %140 = load ptr, ptr %10, align 8
  %141 = getelementptr inbounds nuw %struct.JoinExpr, ptr %140, i32 0, i32 4
  %142 = load ptr, ptr %141, align 8
  %143 = call zeroext i1 @has_dangerous_join_using(ptr noundef %139, ptr noundef %142)
  br i1 %143, label %144, label %145

144:                                              ; preds = %138
  store i1 true, ptr %3, align 1
  store i32 1, ptr %9, align 4
  br label %146

145:                                              ; preds = %138
  store i32 0, ptr %9, align 4
  br label %146

146:                                              ; preds = %145, %144, %137, %128
  call void @llvm.lifetime.end.p0(i64 8, ptr %10) #10
  %147 = load i32, ptr %9, align 4
  switch i32 %147, label %167 [
    i32 0, label %148
    i32 1, label %165
  ]

148:                                              ; preds = %146
  br label %162

149:                                              ; preds = %75
  br label %150

150:                                              ; preds = %149
  br i1 true, label %151, label %153

151:                                              ; preds = %150
  %152 = call zeroext i1 @errstart_cold(i32 noundef 21, ptr noundef null) #11
  br i1 %152, label %155, label %160

153:                                              ; preds = %150
  %154 = call zeroext i1 @errstart(i32 noundef 21, ptr noundef null)
  br i1 %154, label %155, label %160

155:                                              ; preds = %153, %151
  %156 = load ptr, ptr %5, align 8
  %157 = getelementptr inbounds nuw %struct.Node, ptr %156, i32 0, i32 0
  %158 = load i32, ptr %157, align 4
  %159 = call i32 (ptr, ...) @errmsg_internal(ptr noundef @.str.64, i32 noundef %158)
  call void @errfinish(ptr noundef @.str.2, i32 noundef 4186, ptr noundef @__func__.has_dangerous_join_using)
  br label %160

160:                                              ; preds = %155, %153, %151
  unreachable

161:                                              ; No predecessors!
  br label %162

162:                                              ; preds = %161, %148
  br label %163

163:                                              ; preds = %162, %74
  br label %164

164:                                              ; preds = %163, %18
  store i1 false, ptr %3, align 1
  br label %165

165:                                              ; preds = %164, %146, %72
  %166 = load i1, ptr %3, align 1
  ret i1 %166

167:                                              ; preds = %146, %72
  unreachable
}