; Function Attrs: nounwind uwtable
define internal fastcc noundef zeroext i1 @has_dangerous_join_using(ptr noundef nonnull %0, ptr noundef readonly captures(none) %1) unnamed_addr #0 {
  %3 = load i32, ptr %1, align 4
  switch i32 %3, label %53 [
    i32 63, label %.thread53
    i32 65, label %4
    i32 64, label %19
  ]

4:                                                ; preds = %2
  %5 = getelementptr inbounds nuw i8, ptr %1, i64 8
  %6 = load ptr, ptr %5, align 8
  %7 = getelementptr inbounds nuw i8, ptr %6, i64 4
  %.not45 = icmp eq ptr %6, null
  br i1 %.not45, label %.thread53, label %.lr.ph65

.lr.ph65:                                         ; preds = %4
  %8 = getelementptr inbounds nuw i8, ptr %6, i64 16
  %9 = load i32, ptr %7, align 4
  %10 = icmp sgt i32 %9, 0
  br i1 %10, label %.lr.ph73, label %.thread53

11:                                               ; preds = %.lr.ph73
  %indvars.iv.next76 = add nuw nsw i64 %indvars.iv75, 1
  %12 = load i32, ptr %7, align 4
  %13 = sext i32 %12 to i64
  %14 = icmp slt i64 %indvars.iv.next76, %13
  br i1 %14, label %.lr.ph73, label %.thread53

.lr.ph73:                                         ; preds = %.lr.ph65, %11
  %indvars.iv75 = phi i64 [ %indvars.iv.next76, %11 ], [ 0, %.lr.ph65 ]
  %15 = load ptr, ptr %8, align 8
  %16 = getelementptr inbounds nuw %union.ListCell, ptr %15, i64 %indvars.iv75
  %17 = load ptr, ptr %16, align 8
  %18 = tail call fastcc zeroext i1 @has_dangerous_join_using(ptr noundef %0, ptr noundef %17)
  br i1 %18, label %.thread53, label %11

19:                                               ; preds = %2
  %20 = getelementptr inbounds nuw i8, ptr %1, i64 56
  %21 = load ptr, ptr %20, align 8
  %22 = icmp eq ptr %21, null
  br i1 %22, label %23, label %.loopexit

23:                                               ; preds = %19
  %24 = getelementptr inbounds nuw i8, ptr %1, i64 32
  %25 = load ptr, ptr %24, align 8
  %.not = icmp eq ptr %25, null
  br i1 %.not, label %.loopexit, label %26

26:                                               ; preds = %23
  %27 = load ptr, ptr %0, align 8
  %28 = getelementptr inbounds nuw i8, ptr %1, i64 64
  %29 = load i32, ptr %28, align 8
  %30 = add i32 %29, -1
  %31 = getelementptr i8, ptr %27, i64 16
  %.val49 = load ptr, ptr %31, align 8
  %32 = sext i32 %30 to i64
  %33 = getelementptr inbounds %union.ListCell, ptr %.val49, i64 %32
  %34 = load ptr, ptr %33, align 8
  %35 = getelementptr inbounds nuw i8, ptr %34, i64 72
  %36 = load i32, ptr %35, align 8
  %.not4462 = icmp sgt i32 %36, 0
  br i1 %.not4462, label %.lr.ph, label %.loopexit

.lr.ph:                                           ; preds = %26
  %37 = getelementptr inbounds nuw i8, ptr %34, i64 80
  %38 = load ptr, ptr %37, align 8
  %39 = getelementptr i8, ptr %38, i64 16
  %.val = load ptr, ptr %39, align 8
  %wide.trip.count = zext nneg i32 %36 to i64
  br label %41

40:                                               ; preds = %41
  %indvars.iv.next = add nuw nsw i64 %indvars.iv, 1
  %exitcond.not = icmp eq i64 %indvars.iv.next, %wide.trip.count
  br i1 %exitcond.not, label %.loopexit, label %41, !llvm.loop !52

41:                                               ; preds = %.lr.ph, %40
  %indvars.iv = phi i64 [ 0, %.lr.ph ], [ %indvars.iv.next, %40 ]
  %42 = getelementptr inbounds nuw %union.ListCell, ptr %.val, i64 %indvars.iv
  %43 = load ptr, ptr %42, align 8
  %44 = load i32, ptr %43, align 4
  %45 = icmp eq i32 %44, 6
  br i1 %45, label %40, label %.thread59

.loopexit:                                        ; preds = %40, %26, %23, %19
  %46 = getelementptr inbounds nuw i8, ptr %1, i64 16
  %47 = load ptr, ptr %46, align 8
  %48 = tail call fastcc zeroext i1 @has_dangerous_join_using(ptr noundef %0, ptr noundef %47)
  br i1 %48, label %.thread59, label %49

49:                                               ; preds = %.loopexit
  %50 = getelementptr inbounds nuw i8, ptr %1, i64 24
  %51 = load ptr, ptr %50, align 8
  %52 = tail call fastcc zeroext i1 @has_dangerous_join_using(ptr noundef %0, ptr noundef %51)
  br i1 %52, label %.thread59, label %.thread53

.thread59:                                        ; preds = %41, %.loopexit, %49
  br label %.thread53

53:                                               ; preds = %2
  %54 = tail call zeroext i1 @errstart_cold(i32 noundef 21, ptr noundef null) #12
  tail call void @llvm.assume(i1 %54)
  %55 = load i32, ptr %1, align 4
  %56 = tail call i32 (ptr, ...) @errmsg_internal(ptr noundef nonnull @.str.64, i32 noundef %55) #11
  tail call void @errfinish(ptr noundef nonnull @.str.2, i32 noundef 4186, ptr noundef nonnull @__func__.has_dangerous_join_using) #11
  unreachable

.thread53:                                        ; preds = %11, %.lr.ph73, %4, %.lr.ph65, %2, %49, %.thread59
  %.1 = phi i1 [ true, %.thread59 ], [ false, %49 ], [ false, %2 ], [ false, %4 ], [ false, %.lr.ph65 ], [ %18, %.lr.ph73 ], [ %18, %11 ]
  ret i1 %.1
}